target datalayout = "e-m:e-p270:32:32-p271:32:32-p272:64:64-i64:64-i128:128-f80:128-n8:16:32:64-S128"
target triple = "x86_64-pc-linux-gnu"

%struct.mbedtls_ecp_point = type { %struct.mbedtls_mpi, %struct.mbedtls_mpi, %struct.mbedtls_mpi }
%struct.mbedtls_mpi = type { ptr, i16, i16 }

; Function Attrs: nounwind uwtable
define hidden i32 @mbedtls_ecp_point_cmp(ptr noundef %0, ptr noundef %1) #0 {
  %3 = alloca i32, align 4
  %4 = alloca ptr, align 8
  %5 = alloca ptr, align 8
  store ptr %0, ptr %4, align 8, !tbaa !34
  store ptr %1, ptr %5, align 8, !tbaa !34
  %6 = load ptr, ptr %4, align 8, !tbaa !34
  %7 = getelementptr inbounds nuw %struct.mbedtls_ecp_point, ptr %6, i32 0, i32 0
  %8 = load ptr, ptr %5, align 8, !tbaa !34
  %9 = getelementptr inbounds nuw %struct.mbedtls_ecp_point, ptr %8, i32 0, i32 0
  %10 = call i32 @mbedtls_mpi_cmp_mpi(ptr noundef %7, ptr noundef %9)
  %11 = icmp eq i32 %10, 0
  br i1 %11, label %12, label %27

12:                                               ; preds = %2
  %13 = load ptr, ptr %4, align 8, !tbaa !34
  %14 = getelementptr inbounds nuw %struct.mbedtls_ecp_point, ptr %13, i32 0, i32 1
  %15 = load ptr, ptr %5, align 8, !tbaa !34
  %16 = getelementptr inbounds nuw %struct.mbedtls_ecp_point, ptr %15, i32 0, i32 1
  %17 = call i32 @mbedtls_mpi_cmp_mpi(ptr noundef %14, ptr noundef %16)
  %18 = icmp eq i32 %17, 0
  br i1 %18, label %19, label %27

19:                                               ; preds = %12
  %20 = load ptr, ptr %4, align 8, !tbaa !34
  %21 = getelementptr inbounds nuw %struct.mbedtls_ecp_point, ptr %20, i32 0, i32 2
  %22 = load ptr, ptr %5, align 8, !tbaa !34
  %23 = getelementptr inbounds nuw %struct.mbedtls_ecp_point, ptr %22, i32 0, i32 2
  %24 = call i32 @mbedtls_mpi_cmp_mpi(ptr noundef %21, ptr noundef %23)
  %25 = icmp eq i32 %24, 0
  br i1 %25, label %26, label %27

26:                                               ; preds = %19
  store i32 0, ptr %3, align 4
  br label %28

27:                                               ; preds = %19, %12, %2
  store i32 -20352, ptr %3, align 4
  br label %28

28:                                               ; preds = %27, %26
  %29 = load i32, ptr %3, align 4
  ret i32 %29
}