; Function Attrs: nounwind uwtable
define hidden range(i32 -20352, 1) i32 @mbedtls_ecp_point_cmp(ptr noundef %0, ptr noundef %1) local_unnamed_addr #7 {
  %3 = tail call i32 @mbedtls_mpi_cmp_mpi(ptr noundef %0, ptr noundef %1) #21
  %4 = icmp eq i32 %3, 0
  br i1 %4, label %5, label %15

5:                                                ; preds = %2
  %6 = getelementptr inbounds nuw i8, ptr %0, i64 16
  %7 = getelementptr inbounds nuw i8, ptr %1, i64 16
  %8 = tail call i32 @mbedtls_mpi_cmp_mpi(ptr noundef nonnull %6, ptr noundef nonnull %7) #21
  %9 = icmp eq i32 %8, 0
  br i1 %9, label %10, label %15

10:                                               ; preds = %5
  %11 = getelementptr inbounds nuw i8, ptr %0, i64 32
  %12 = getelementptr inbounds nuw i8, ptr %1, i64 32
  %13 = tail call i32 @mbedtls_mpi_cmp_mpi(ptr noundef nonnull %11, ptr noundef nonnull %12) #21
  %14 = icmp eq i32 %13, 0
  br i1 %14, label %16, label %15

15:                                               ; preds = %10, %5, %2
  br label %16

16:                                               ; preds = %10, %15
  %.0 = phi i32 [ -20352, %15 ], [ 0, %10 ]
  ret i32 %.0
}